target datalayout = "e-m:e-p270:32:32-p271:32:32-p272:64:64-i64:64-i128:128-f80:128-n8:16:32:64-S128"
target triple = "x86_64-pc-linux-gnu"

@.str.363 = private unnamed_addr constant [3 x i8] c"OO\00", align 1

; Function Attrs: nounwind uwtable
define internal ptr @unicode_join(ptr noundef %0, ptr noundef %1) #0 {
  %3 = alloca ptr, align 8
  %4 = alloca ptr, align 8
  %5 = alloca ptr, align 8
  %6 = alloca ptr, align 8
  %7 = alloca ptr, align 8
  %8 = alloca i32, align 4
  store ptr %0, ptr %4, align 8, !tbaa !3
  store ptr %1, ptr %5, align 8, !tbaa !3
  call void @llvm.lifetime.start.p0(i64 8, ptr %6) #7
  call void @llvm.lifetime.start.p0(i64 8, ptr %7) #7
  %9 = load ptr, ptr %5, align 8, !tbaa !3
  %10 = call i32 (ptr, ptr, ...) @PyArg_ParseTuple(ptr noundef %9, ptr noundef @.str.363, ptr noundef %6, ptr noundef %7)
  %11 = icmp ne i32 %10, 0
  br i1 %11, label %13, label %12

12:                                               ; preds = %2
  store ptr null, ptr %3, align 8
  store i32 1, ptr %8, align 4
  br label %33

13:                                               ; preds = %2
  br label %14

14:                                               ; preds = %13
  %15 = load ptr, ptr %6, align 8, !tbaa !3
  %16 = call ptr @Py_GetConstantBorrowed(i32 noundef 0)
  %17 = icmp eq ptr %15, %16
  br i1 %17, label %18, label %19

18:                                               ; preds = %14
  store ptr null, ptr %6, align 8, !tbaa !3
  br label %19

19:                                               ; preds = %18, %14
  br label %20

20:                                               ; preds = %19
  br label %21

21:                                               ; preds = %20
  br label %22

22:                                               ; preds = %21
  %23 = load ptr, ptr %7, align 8, !tbaa !3
  %24 = call ptr @Py_GetConstantBorrowed(i32 noundef 0)
  %25 = icmp eq ptr %23, %24
  br i1 %25, label %26, label %27

26:                                               ; preds = %22
  store ptr null, ptr %7, align 8, !tbaa !3
  br label %27

27:                                               ; preds = %26, %22
  br label %28

28:                                               ; preds = %27
  br label %29

29:                                               ; preds = %28
  %30 = load ptr, ptr %6, align 8, !tbaa !3
  %31 = load ptr, ptr %7, align 8, !tbaa !3
  %32 = call ptr @PyUnicode_Join(ptr noundef %30, ptr noundef %31)
  store ptr %32, ptr %3, align 8
  store i32 1, ptr %8, align 4
  br label %33

33:                                               ; preds = %29, %12
  call void @llvm.lifetime.end.p0(i64 8, ptr %7) #7
  call void @llvm.lifetime.end.p0(i64 8, ptr %6) #7
  %34 = load ptr, ptr %3, align 8
  ret ptr %34
}